0801B072 E002     b       801B07Ah                                ;8  181

0801AFC0 4B00     ldr     r3,=8209EDBh                            ;9  156
0801AFC2 4718     bx      r3                                      ;8  164
0801AFC4 9EDB     ldr     r6,[sp,36Ch]                            ;4  168
0801AFC6 0820     lsr     r0,r4,20h                               ;2  170

08209EDA 4B0C     ldr     r3,=820E170h                            ;9  158
08209EDC 4553     cmp     r3,r10                                  ;2  160
08209EDE D037     beq     8209F50h                                ;8  168
08209EE0 4B0C     ldr     r3,=820E178h                            ;9  177
08209EE2 4553     cmp     r3,r10                                  ;2  179
08209EE4 D034     beq     8209F50h                                ;8  187
08209EE6 4B0C     ldr     r3,=820E1A8h                            ;9  196
08209EE8 4553     cmp     r3,r10                                  ;2  198
08209EEA D031     beq     8209F50h                                ;8  206
08209EEC E021     b       8209F32h                                ;8  214
08209EEE 46C0     nop                                             ;2  216
08209EF0 46C0     nop                                             ;2  218
08209EF2 46C0     nop                                             ;2  220
08209EF4 46C0     nop                                             ;2  222
08209EF6 46C0     nop                                             ;2  224
08209EF8 46C0     nop                                             ;2  226
08209EFA 46C0     nop                                             ;2  228
08209EFC 46C0     nop                                             ;2  230
08209EFE 46C0     nop                                             ;2  232
08209F00 46C0     nop                                             ;2  234
08209F02 46C0     nop                                             ;2  236
08209F04 46C0     nop                                             ;2  238
08209F06 46C0     nop                                             ;2  240
08209F08 46C0     nop                                             ;2  242
08209F0A 46C0     nop                                             ;2  244
08209F0C E170     b       820A1F0h                                ;8  252
08209F0E 0820     lsr     r0,r4,20h                               ;2  254
08209F10 46C0     nop                                             ;2  256
08209F12 46C0     nop                                             ;2  258
08209F14 E178     b       820A208h                                ;8  266
08209F16 0820     lsr     r0,r4,20h                               ;2  268
08209F18 E1A8     b       820A26Ch                                ;8  276
08209F1A 0820     lsr     r0,r4,20h                               ;2  278
08209F1C 46C0     nop                                             ;2  280
08209F1E 46C0     nop                                             ;2  282
08209F20 46C0     nop                                             ;2  284
08209F22 46C0     nop                                             ;2  286
08209F24 46C0     nop                                             ;2  288
08209F26 46C0     nop                                             ;2  290
08209F28 46C0     nop                                             ;2  292
08209F2A 46C0     nop                                             ;2  294
08209F2C 46C0     nop                                             ;2  296
08209F2E 46C0     nop                                             ;2  298
08209F30 46C0     nop                                             ;9  307
08209F32 782B     ldrb    r3,[r5]                                 ;7  330
08209F34 6852     ldr     r2,[r2,4h]                              ;9  339
08209F36 009B     lsl     r3,r3,2h                                ;2  341
08209F38 18D7     add     r7,r2,r3                                ;2  343
08209F3A 4B01     ldr     r3,=801AFC9h                            ;9  352
08209F3C 4718     bx      r3                                      ;8  360
08209F3E 46C0     nop                                             ;2  362
08209F40 AFC9     add     r7,sp,324h                              ;2  364
08209F42 0801     lsr     r1,r0,20h                               ;2  366
08209F44 46C0     nop                                             ;2  368
08209F46 46C0     nop                                             ;2  370
08209F48 46C0     nop                                             ;2  372
08209F4A 46C0     nop                                             ;2  374
08209F4C 46C0     nop                                             ;2  376
08209F4E 46C0     nop                                             ;2  378
08209F50 782B     ldrb    r3,[r5]                                 ;7  385
08209F52 2B6B     cmp     r3,6Bh                                  ;2  387
08209F54 DDEC     ble     8209F30h                                ;8  395
08209F56 2B80     cmp     r3,80h                                  ;2  397
08209F58 DAEA     bge     8209F30h                                ;8  405
08209F5A 2B6F     cmp     r3,6Fh                                  ;2  407
08209F5C DD08     ble     8209F70h                                ;8  415
08209F5E 2B79     cmp     r3,79h                                  ;2  417
08209F60 DD1E     ble     8209FA0h                                ;8  425
08209F62 E7E5     b       8209F30h                                ;8  433
08209F64 46C0     nop                                             ;2  435
08209F66 46C0     nop                                             ;2  437
08209F68 46C0     nop                                             ;2  439
08209F6A 46C0     nop                                             ;2  441
08209F6C 46C0     nop                                             ;2  443
08209F6E 46C0     nop                                             ;2  445
08209F70 3B6C     sub     r3,6Ch                                  ;2  447
08209F72 021B     lsl     r3,r3,8h                                ;2  449
08209F74 3501     add     r5,1h                                   ;2  451
08209F76 782A     ldrb    r2,[r5]                                 ;7  458
08209F78 189B     add     r3,r3,r2                                ;2  460
08209F7A 2202     mov     r2,2h                                   ;2  462
08209F7C 0212     lsl     r2,r2,8h                                ;2  464
08209F7E 3210     add     r2,10h                                  ;2  466
08209F80 009B     lsl     r3,r3,2h                                ;2  468
08209F82 189B     add     r3,r3,r2                                ;2  470
08209F84 680A     ldr     r2,[r1]                                 ;9  479
08209F86 6852     ldr     r2,[r2,4h]                              ;9  488
08209F88 18D7     add     r7,r2,r3                                ;2  490
08209F8A 8E03     ldrh    r3,[r0,30h]                             ;4  494
08209F8C 3301     add     r3,1h                                   ;2  496
08209F8E 8603     strh    r3,[r0,30h]                             ;5  501
08209F90 4B00     ldr     r3,=801AFC9h                            ;9  510
08209F92 4718     bx      r3                                      ;8  518
08209F94 AFC9     add     r7,sp,324h                              ;2  520
08209F96 0801     lsr     r1,r0,20h                               ;2  522
08209F98 46C0     nop                                             ;2  524
08209F9A 46C0     nop                                             ;2  526
08209F9C 46C0     nop                                             ;2  528
08209F9E 46C0     nop                                             ;2  530
08209FA0 3B70     sub     r3,70h                                  ;2  532
08209FA2 021B     lsl     r3,r3,8h                                ;2  534
08209FA4 3501     add     r5,1h                                   ;2  536
08209FA6 782A     ldrb    r2,[r5]                                 ;7  543
08209FA8 189B     add     r3,r3,r2                                ;2  545
08209FAA 2202     mov     r2,2h                                   ;2  547
08209FAC 0212     lsl     r2,r2,8h                                ;2  549
08209FAE 3214     add     r2,14h                                  ;2  551
08209FB0 009B     lsl     r3,r3,2h                                ;2  553
08209FB2 189B     add     r3,r3,r2                                ;2  555
08209FB4 680A     ldr     r2,[r1]                                 ;9  564
08209FB6 6852     ldr     r2,[r2,4h]                              ;9  573
08209FB8 18D7     add     r7,r2,r3                                ;2  575
08209FBA 8E03     ldrh    r3,[r0,30h]                             ;4  579
08209FBC 3301     add     r3,1h                                   ;2  581
08209FBE 8603     strh    r3,[r0,30h]                             ;5  586
08209FC0 4B00     ldr     r3,=801AFC9h                            ;9  595
08209FC2 4718     bx      r3                                      ;8  603
08209FC4 AFC9     add     r7,sp,324h                              ;2  605
08209FC6 0801     lsr     r1,r0,20h                               ;2  607
08209FC8 46C0     nop                                             ;2  609
08209FCA 46C0     nop                                             ;2  611
08209FCC 46C0     nop                                             ;2  613
08209FCE 46C0     nop                                             ;2  615

08016DE8 4800     ldr     r0,=8209FD1h                            ;9  156
08016DEA 4700     bx      r0                                      ;8  164
08016DEC 9FD1     ldr     r7,[sp,344h]                            ;4  168
08016DEE 0820     lsr     r0,r4,20h                               ;2  170

08209FD0 4804     ldr     r0,=820E178h                            ;9  195
08209FD2 4558     cmp     r0,r11                                  ;2  197
08209FD4 D00C     beq     8209FF0h                                ;8  205
08209FD6 4804     ldr     r0,=820E1A8h                            ;9  214
08209FD8 4558     cmp     r0,r11                                  ;2  216
08209FDA D009     beq     8209FF0h                                ;8  224
08209FDC E010     b       820A000h                                ;8  232
08209FDE 46C0     nop                                             ;2  234
08209FE0 46C0     nop                                             ;2  236
08209FE2 46C0     nop                                             ;2  238
08209FE4 E178     b       820A2D8h                                ;8  246
08209FE6 0820     lsr     r0,r4,20h                               ;2  248
08209FE8 E1A8     b       820A33Ch                                ;8  256
08209FEA 0820     lsr     r0,r4,20h                               ;2  258
08209FEC 46C0     nop                                             ;2  260
08209FEE 46C0     nop                                             ;2  262
08209FF0 6810     ldr     r0,[r2]                                 ;9  233
08209FF2 7880     ldrb    r0,[r0,2h]                              ;4  237
08209FF4 2810     cmp     r0,10h                                  ;2  239
08209FF6 D013     beq     820A020h                                ;8  247
08209FF8 280D     cmp     r0,0Dh                                  ;2  249
08209FFA D029     beq     820A050h                                ;8  257
08209FFC 46C0     nop                                             ;2  259
08209FFE 46C0     nop                                             ;2  261
0820A000 4658     mov     r0,r11                                  ;2  263
0820A002 6801     ldr     r1,[r0]                                 ;4  267
0820A004 6810     ldr     r0,[r2]                                 ;9  276
0820A006 680B     ldr     r3,[r1]                                 ;9  285
0820A008 8802     ldrh    r2,[r0]                                 ;4  289
0820A00A 4D01     ldr     r5,=8016DF3h                            ;9  298
0820A00C 4728     bx      r5                                      ;8  306
0820A00E 46C0     nop                                             ;2  308
0820A010 6DF3     ldr     r3,[r6,5Ch]                             ;4  312
0820A012 0801     lsr     r1,r0,20h                               ;2  314
0820A014 46C0     nop                                             ;2  316
0820A016 46C0     nop                                             ;2  318
0820A018 46C0     nop                                             ;2  320
0820A01A 46C0     nop                                             ;2  322
0820A01C 46C0     nop                                             ;2  324
0820A01E 46C0     nop                                             ;2  326
0820A020 6810     ldr     r0,[r2]                                 ;9  335
0820A022 8802     ldrh    r2,[r0]                                 ;4  339
0820A024 0212     lsl     r2,r2,8h                                ;2  341
0820A026 4659     mov     r1,r11                                  ;2  343
0820A028 6809     ldr     r1,[r1]                                 ;9  352
0820A02A 680B     ldr     r3,[r1]                                 ;9  361
0820A02C 18D5     add     r5,r2,r3                                ;2  363
0820A02E 4B02     ldr     r3,=3F10h                               ;9  372
0820A030 18ED     add     r5,r5,r3                                ;2  374
0820A032 4B02     ldr     r3,=8016DF5h                            ;9  383
0820A034 4718     bx      r3                                      ;8  391
0820A036 46C0     nop                                             ;2  393
0820A038 3F10     sub     r7,10h                                  ;2  395
0820A03A 0000     lsl     r0,r0,0h                                ;2  397
0820A03C 6DF5     ldr     r5,[r6,5Ch]                             ;4  401
0820A03E 0801     lsr     r1,r0,20h                               ;2  403
0820A040 46C0     nop                                             ;2  405
0820A042 46C0     nop                                             ;2  407
0820A044 46C0     nop                                             ;2  409
0820A046 46C0     nop                                             ;2  411
0820A048 46C0     nop                                             ;2  413
0820A04A 46C0     nop                                             ;2  415
0820A04C 46C0     nop                                             ;2  417
0820A04E 46C0     nop                                             ;2  419
0820A050 6810     ldr     r0,[r2]                                 ;9  428
0820A052 8802     ldrh    r2,[r0]                                 ;4  432
0820A054 21B0     mov     r1,0B0h                                 ;2  434
0820A056 434A     mul     r2,r1                                   ;6  440
0820A058 4659     mov     r1,r11                                  ;2  442
0820A05A 6809     ldr     r1,[r1]                                 ;9  451
0820A05C 680B     ldr     r3,[r1]                                 ;9  460
0820A05E 18D5     add     r5,r2,r3                                ;2  462
0820A060 4B02     ldr     r3,=2A74h                               ;9  471
0820A062 18ED     add     r5,r5,r3                                ;2  473
0820A064 4B02     ldr     r3,=8016DF5h                            ;9  482
0820A066 4718     bx      r3                                      ;8  490
0820A068 46C0     nop                                             ;2  492
0820A06A 46C0     nop                                             ;2  494
0820A06C 2A74     cmp     r2,74h                                  ;2  496
0820A06E 0000     lsl     r0,r0,0h                                ;2  498
0820A070 6DF5     ldr     r5,[r6,5Ch]                             ;4  502
0820A072 0801     lsr     r1,r0,20h                               ;2  504
0820A074 46C0     nop                                             ;2  506
0820A076 46C0     nop                                             ;2  508
0820A078 46C0     nop                                             ;2  510
0820A07A 46C0     nop                                             ;2  512
0820A07C 46C0     nop                                             ;2  514
0820A07E 46C0     nop                                             ;2  516

08006232 4D01     ldr     r5,=820A081h                            ;9  133
08006234 4728     bx      r5                                      ;8  141
08006236 46C0     nop                                             ;2  143
08006238 A081     add     r0,=8006440h                            ;2  145
0800623A 0820     lsr     r0,r4,20h                               ;2  147

0820A080 4D0C     ldr     r5,=820E170h                            ;9  122
0820A082 42A8     cmp     r0,r5                                   ;2  124
0820A084 D034     beq     820A0F0h                                ;8  132
0820A086 E023     b       820A0D0h                                ;8  140
0820A088 46C0     nop                                             ;2  142
0820A08A 46C0     nop                                             ;2  144
0820A08C 46C0     nop                                             ;2  146
0820A08E 46C0     nop                                             ;2  148
0820A090 46C0     nop                                             ;2  150
0820A092 46C0     nop                                             ;2  152
0820A094 46C0     nop                                             ;2  154
0820A096 46C0     nop                                             ;2  156
0820A098 46C0     nop                                             ;2  158
0820A09A 46C0     nop                                             ;2  160
0820A09C 46C0     nop                                             ;2  162
0820A09E 46C0     nop                                             ;2  164
0820A0A0 46C0     nop                                             ;2  166
0820A0A2 46C0     nop                                             ;2  168
0820A0A4 46C0     nop                                             ;2  170
0820A0A6 46C0     nop                                             ;2  172
0820A0A8 46C0     nop                                             ;2  174
0820A0AA 46C0     nop                                             ;2  176
0820A0AC 46C0     nop                                             ;2  178
0820A0AE 46C0     nop                                             ;2  180
0820A0B0 46C0     nop                                             ;2  182
0820A0B2 46C0     nop                                             ;2  184
0820A0B4 E170     b       820A398h                                ;8  192
0820A0B6 0820     lsr     r0,r4,20h                               ;2  194
0820A0B8 46C0     nop                                             ;2  196
0820A0BA 46C0     nop                                             ;2  198
0820A0BC 46C0     nop                                             ;2  200
0820A0BE 46C0     nop                                             ;2  202
0820A0C0 46C0     nop                                             ;2  204
0820A0C2 46C0     nop                                             ;2  206
0820A0C4 46C0     nop                                             ;2  208
0820A0C6 46C0     nop                                             ;2  210
0820A0C8 46C0     nop                                             ;2  212
0820A0CA 46C0     nop                                             ;2  214
0820A0CC 46C0     nop                                             ;2  216
0820A0CE 46C0     nop                                             ;2  218
0820A0D0 682A     ldr     r2,[r5]                                 ;9  227
0820A0D2 883B     ldrh    r3,[r7]                                 ;7  234
0820A0D4 2100     mov     r1,0h                                   ;2  236
0820A0D6 18D2     add     r2,r2,r3                                ;2  238
0820A0D8 4B00     ldr     r3,=800623Fh                            ;9  247
0820A0DA 4718     bx      r3                                      ;8  255
0820A0DC 623F     str     r7,[r7,20h]                             ;10 265
0820A0DE 0800     lsr     r0,r0,20h                               ;2  267
0820A0E0 46C0     nop                                             ;2  269
0820A0E2 46C0     nop                                             ;2  271
0820A0E4 46C0     nop                                             ;2  273
0820A0E6 46C0     nop                                             ;2  275
0820A0E8 46C0     nop                                             ;2  277
0820A0EA 46C0     nop                                             ;2  279
0820A0EC 46C0     nop                                             ;2  281
0820A0EE 46C0     nop                                             ;2  283
0820A0F0 6805     ldr     r5,[r0]                                 ;4  287
0820A0F2 6827     ldr     r7,[r4]                                 ;9  296
0820A0F4 78BB     ldrb    r3,[r7,2h]                              ;7  303
0820A0F6 2B10     cmp     r3,10h                                  ;2  305
0820A0F8 D00A     beq     820A110h                                ;8  313
0820A0FA E7E9     b       820A0D0h                                ;8  321
0820A0FC 46C0     nop                                             ;2  323
0820A0FE 46C0     nop                                             ;2  325
0820A100 46C0     nop                                             ;2  327
0820A102 46C0     nop                                             ;2  329
0820A104 46C0     nop                                             ;2  331
0820A106 46C0     nop                                             ;2  333
0820A108 46C0     nop                                             ;2  335
0820A10A 46C0     nop                                             ;2  337
0820A10C 46C0     nop                                             ;2  339
0820A10E 46C0     nop                                             ;2  341
0820A110 6827     ldr     r7,[r4]                                 ;9  350
0820A112 682A     ldr     r2,[r5]                                 ;9  359
0820A114 883B     ldrh    r3,[r7]                                 ;7  366
0820A116 021B     lsl     r3,r3,8h                                ;2  368
0820A118 3310     add     r3,10h                                  ;2  370
0820A11A 213F     mov     r1,3Fh                                  ;2  372
0820A11C 0209     lsl     r1,r1,8h                                ;2  374
0820A11E 185B     add     r3,r3,r1                                ;2  376
0820A120 18D2     add     r2,r2,r3                                ;2  378
0820A122 2100     mov     r1,0h                                   ;2  380
0820A124 4B00     ldr     r3,=800623Fh                            ;9  389
0820A126 4718     bx      r3                                      ;8  397
0820A128 623F     str     r7,[r7,20h]                             ;10 407
0820A12A 0800     lsr     r0,r0,20h                               ;2  409
0820A12C 46C0     nop                                             ;2  411
0820A12E 46C0     nop                                             ;2  413
0820A130 46C0     nop                                             ;2  415
0820A132 46C0     nop                                             ;2  417
0820A134 46C0     nop                                             ;2  419
0820A136 46C0     nop                                             ;2  421
0820A138 46C0     nop                                             ;2  423
0820A13A 46C0     nop                                             ;2  425
0820A13C 46C0     nop                                             ;2  427
0820A13E 46C0     nop                                             ;2  429

08009294 4D00     ldr     r5,=820A141h                            ;9  63
08009296 4728     bx      r5                                      ;8  71
08009298 A141     add     r0,=80093A0h                            ;2  73
0800929A 0820     lsr     r0,r4,20h                               ;2  75

0820A140 4D0C     ldr     r5,=820E1A8h                            ;9  136
0820A142 42A8     cmp     r0,r5                                   ;2  138
0820A144 D02C     beq     820A1A0h                                ;8  146
0820A146 E01B     b       820A180h                                ;8  154
0820A148 46C0     nop                                             ;2  156
0820A14A 46C0     nop                                             ;2  158
0820A14C 46C0     nop                                             ;2  160
0820A14E 46C0     nop                                             ;2  162
0820A150 46C0     nop                                             ;2  164
0820A152 46C0     nop                                             ;2  166
0820A154 46C0     nop                                             ;2  168
0820A156 46C0     nop                                             ;2  170
0820A158 46C0     nop                                             ;2  172
0820A15A 46C0     nop                                             ;2  174
0820A15C 46C0     nop                                             ;2  176
0820A15E 46C0     nop                                             ;2  178
0820A160 46C0     nop                                             ;2  180
0820A162 46C0     nop                                             ;2  182
0820A164 46C0     nop                                             ;2  184
0820A166 46C0     nop                                             ;2  186
0820A168 46C0     nop                                             ;2  188
0820A16A 46C0     nop                                             ;2  190
0820A16C 46C0     nop                                             ;2  192
0820A16E 46C0     nop                                             ;2  194
0820A170 46C0     nop                                             ;2  196
0820A172 46C0     nop                                             ;2  198
0820A174 E1A8     b       820A4C8h                                ;8  206
0820A176 0820     lsr     r0,r4,20h                               ;2  208
0820A178 46C0     nop                                             ;2  210
0820A17A 46C0     nop                                             ;2  212
0820A17C 46C0     nop                                             ;2  214
0820A17E 46C0     nop                                             ;2  216
0820A180 683D     ldr     r5,[r7]                                 ;9  173
0820A182 6800     ldr     r0,[r0]                                 ;4  177
0820A184 882B     ldrh    r3,[r5]                                 ;7  184
0820A186 6802     ldr     r2,[r0]                                 ;4  188
0820A188 2100     mov     r1,0h                                   ;2  190
0820A18A 18D6     add     r6,r2,r3                                ;2  192
0820A18C 4B00     ldr     r3,=80092A1h                            ;9  201
0820A18E 4718     bx      r3                                      ;8  209
0820A190 92A1     str     r2,[sp,284h]                            ;5  214
0820A192 0800     lsr     r0,r0,20h                               ;2  216
0820A194 46C0     nop                                             ;2  218
0820A196 46C0     nop                                             ;2  220
0820A198 46C0     nop                                             ;2  222
0820A19A 46C0     nop                                             ;2  224
0820A19C 46C0     nop                                             ;2  226
0820A19E 46C0     nop                                             ;2  228
0820A1A0 680D     ldr     r5,[r1]                                 ;9  237
0820A1A2 78AB     ldrb    r3,[r5,2h]                              ;7  244
0820A1A4 2B0D     cmp     r3,0Dh                                  ;2  246
0820A1A6 D00B     beq     820A1C0h                                ;8  254
0820A1A8 E7EA     b       820A180h                                ;8  262
0820A1AA 46C0     nop                                             ;2  264
0820A1AC 46C0     nop                                             ;2  266
0820A1AE 46C0     nop                                             ;2  268
0820A1B0 46C0     nop                                             ;2  270
0820A1B2 46C0     nop                                             ;2  272
0820A1B4 46C0     nop                                             ;2  274
0820A1B6 46C0     nop                                             ;2  276
0820A1B8 46C0     nop                                             ;2  278
0820A1BA 46C0     nop                                             ;2  280
0820A1BC 46C0     nop                                             ;2  282
0820A1BE 46C0     nop                                             ;2  284
0820A1C0 882B     ldrh    r3,[r5]                                 ;7  291
0820A1C2 6802     ldr     r2,[r0]                                 ;4  295
0820A1C4 6812     ldr     r2,[r2]                                 ;9  304
0820A1C6 21B0     mov     r1,0B0h                                 ;2  306
0820A1C8 434B     mul     r3,r1                                   ;3  309
0820A1CA 18D6     add     r6,r2,r3                                ;2  311
0820A1CC 4B02     ldr     r3,=2A74h                               ;9  320
0820A1CE 18F6     add     r6,r6,r3                                ;2  322
0820A1D0 2100     mov     r1,0h                                   ;2  324
0820A1D2 4B02     ldr     r3,=80092A1h                            ;9  333
0820A1D4 4718     bx      r3                                      ;8  341
0820A1D6 46C0     nop                                             ;2  343
0820A1D8 2A74     cmp     r2,74h                                  ;2  345
0820A1DA 0000     lsl     r0,r0,0h                                ;2  347
0820A1DC 92A1     str     r2,[sp,284h]                            ;5  352
0820A1DE 0800     lsr     r0,r0,20h                               ;2  354
0820A1E0 46C0     nop                                             ;2  356
0820A1E2 46C0     nop                                             ;2  358
0820A1E4 46C0     nop                                             ;2  360
0820A1E6 46C0     nop                                             ;2  362
0820A1E8 46C0     nop                                             ;2  364
0820A1EA 46C0     nop                                             ;2  366
0820A1EC 46C0     nop                                             ;2  368
0820A1EE 46C0     nop                                             ;2  370

0820E128 8D00     ldrh    r0,[r0,28h]                             ;4  113
0820E12A 08F7     lsr     r7,r6,3h                                ;2  115
0820E12C 5410     strb    r0,[r2,r0]                              ;5  120
0820E12E 090B     lsr     r3,r1,4h                                ;2  122

0820E164 7D34     ldrb    r4,[r6,14h]                             ;4  109
0820E166 090B     lsr     r3,r1,4h                                ;2  111
0820E168 64E8     str     r0,[r5,4Ch]                             ;5  116
0820E16A 090E     lsr     r6,r1,4h                                ;2  118

0821C440 0702     lsl     r2,r0,1Ch                               ;2  124
0821C442 0D08     lsr     r0,r1,14h                               ;2  126
0821C444 1204     asr     r4,r0,8h                                ;2  128
0821C446 FF04     bl      lr+0E08h                                ;10 138

0802B8A4 E016     b       802B8D4h                                ;8  232